; ModuleID = '31/236.c'
source_filename = "31/236.c"
target datalayout = "e-m:e-p270:32:32-p271:32:32-p272:64:64-i64:64-f80:128-n8:16:32:64-S128"
target triple = "x86_64-pc-linux-gnu"

%struct.student = type { [10 x i8], [20 x i8], i8, i32, [10 x i8], [15 x i8], %struct.student* }

@.str = private unnamed_addr constant [3 x i8] c"%s\00", align 1
@.str.1 = private unnamed_addr constant [4 x i8] c"end\00", align 1
@.str.2 = private unnamed_addr constant [16 x i8] c"%s %c %d %s %s\0A\00", align 1
@.str.3 = private unnamed_addr constant [19 x i8] c"%s %s %c %d %s %s\0A\00", align 1

; Function Attrs: noinline nounwind uwtable
define dso_local void @main() #0 {
  %1 = alloca %struct.student*, align 8
  %2 = alloca %struct.student*, align 8
  %3 = alloca %struct.student*, align 8
  %4 = alloca i32, align 4
  store i32 0, i32* %4, align 4
  %5 = call noalias i8* @malloc(i64 100) #4
  %6 = bitcast i8* %5 to %struct.student*
  store %struct.student* %6, %struct.student** %2, align 8
  store %struct.student* %6, %struct.student** %1, align 8
  %7 = load %struct.student*, %struct.student** %1, align 8
  %8 = getelementptr inbounds %struct.student, %struct.student* %7, i32 0, i32 6
  store %struct.student* null, %struct.student** %8, align 8
  %9 = load %struct.student*, %struct.student** %1, align 8
  %10 = getelementptr inbounds %struct.student, %struct.student* %9, i32 0, i32 0
  %11 = getelementptr inbounds [10 x i8], [10 x i8]* %10, i64 0, i64 0
  %12 = call i32 (i8*, ...) @__isoc99_scanf(i8* getelementptr inbounds ([3 x i8], [3 x i8]* @.str, i64 0, i64 0), i8* %11)
  br label %13

13:                                               ; preds = %19, %0
  %14 = load %struct.student*, %struct.student** %1, align 8
  %15 = getelementptr inbounds %struct.student, %struct.student* %14, i32 0, i32 0
  %16 = getelementptr inbounds [10 x i8], [10 x i8]* %15, i64 0, i64 0
  %17 = call i32 @strcmp(i8* %16, i8* getelementptr inbounds ([4 x i8], [4 x i8]* @.str.1, i64 0, i64 0)) #5
  %18 = icmp ne i32 %17, 0
  br i1 %18, label %19, label %46

19:                                               ; preds = %13
  %20 = load %struct.student*, %struct.student** %1, align 8
  %21 = getelementptr inbounds %struct.student, %struct.student* %20, i32 0, i32 1
  %22 = getelementptr inbounds [20 x i8], [20 x i8]* %21, i64 0, i64 0
  %23 = load %struct.student*, %struct.student** %1, align 8
  %24 = getelementptr inbounds %struct.student, %struct.student* %23, i32 0, i32 2
  %25 = load %struct.student*, %struct.student** %1, align 8
  %26 = getelementptr inbounds %struct.student, %struct.student* %25, i32 0, i32 3
  %27 = load %struct.student*, %struct.student** %1, align 8
  %28 = getelementptr inbounds %struct.student, %struct.student* %27, i32 0, i32 4
  %29 = getelementptr inbounds [10 x i8], [10 x i8]* %28, i64 0, i64 0
  %30 = load %struct.student*, %struct.student** %1, align 8
  %31 = getelementptr inbounds %struct.student, %struct.student* %30, i32 0, i32 5
  %32 = getelementptr inbounds [15 x i8], [15 x i8]* %31, i64 0, i64 0
  %33 = call i32 (i8*, ...) @__isoc99_scanf(i8* getelementptr inbounds ([16 x i8], [16 x i8]* @.str.2, i64 0, i64 0), i8* %22, i8* %24, i32* %26, i8* %29, i8* %32)
  %34 = load i32, i32* %4, align 4
  %35 = add nsw i32 %34, 1
  store i32 %35, i32* %4, align 4
  %36 = call noalias i8* @malloc(i64 100) #4
  %37 = bitcast i8* %36 to %struct.student*
  store %struct.student* %37, %struct.student** %2, align 8
  %38 = load %struct.student*, %struct.student** %1, align 8
  %39 = load %struct.student*, %struct.student** %2, align 8
  %40 = getelementptr inbounds %struct.student, %struct.student* %39, i32 0, i32 6
  store %struct.student* %38, %struct.student** %40, align 8
  %41 = load %struct.student*, %struct.student** %2, align 8
  store %struct.student* %41, %struct.student** %1, align 8
  %42 = load %struct.student*, %struct.student** %1, align 8
  %43 = getelementptr inbounds %struct.student, %struct.student* %42, i32 0, i32 0
  %44 = getelementptr inbounds [10 x i8], [10 x i8]* %43, i64 0, i64 0
  %45 = call i32 (i8*, ...) @__isoc99_scanf(i8* getelementptr inbounds ([3 x i8], [3 x i8]* @.str, i64 0, i64 0), i8* %44)
  br label %13

46:                                               ; preds = %13
  %47 = load %struct.student*, %struct.student** %1, align 8
  %48 = getelementptr inbounds %struct.student, %struct.student* %47, i32 0, i32 6
  %49 = load %struct.student*, %struct.student** %48, align 8
  store %struct.student* %49, %struct.student** %3, align 8
  %50 = load %struct.student*, %struct.student** %3, align 8
  store %struct.student* %50, %struct.student** %1, align 8
  br label %51

51:                                               ; preds = %56, %46
  %52 = load %struct.student*, %struct.student** %1, align 8
  %53 = getelementptr inbounds %struct.student, %struct.student* %52, i32 0, i32 6
  %54 = load %struct.student*, %struct.student** %53, align 8
  %55 = icmp ne %struct.student* %54, null
  br i1 %55, label %56, label %80

56:                                               ; preds = %51
  %57 = load %struct.student*, %struct.student** %1, align 8
  %58 = getelementptr inbounds %struct.student, %struct.student* %57, i32 0, i32 0
  %59 = getelementptr inbounds [10 x i8], [10 x i8]* %58, i64 0, i64 0
  %60 = load %struct.student*, %struct.student** %1, align 8
  %61 = getelementptr inbounds %struct.student, %struct.student* %60, i32 0, i32 1
  %62 = getelementptr inbounds [20 x i8], [20 x i8]* %61, i64 0, i64 0
  %63 = load %struct.student*, %struct.student** %1, align 8
  %64 = getelementptr inbounds %struct.student, %struct.student* %63, i32 0, i32 2
  %65 = load i8, i8* %64, align 2
  %66 = sext i8 %65 to i32
  %67 = load %struct.student*, %struct.student** %1, align 8
  %68 = getelementptr inbounds %struct.student, %struct.student* %67, i32 0, i32 3
  %69 = load i32, i32* %68, align 8
  %70 = load %struct.student*, %struct.student** %1, align 8
  %71 = getelementptr inbounds %struct.student, %struct.student* %70, i32 0, i32 4
  %72 = getelementptr inbounds [10 x i8], [10 x i8]* %71, i64 0, i64 0
  %73 = load %struct.student*, %struct.student** %1, align 8
  %74 = getelementptr inbounds %struct.student, %struct.student* %73, i32 0, i32 5
  %75 = getelementptr inbounds [15 x i8], [15 x i8]* %74, i64 0, i64 0
  %76 = call i32 (i8*, ...) @printf(i8* getelementptr inbounds ([19 x i8], [19 x i8]* @.str.3, i64 0, i64 0), i8* %59, i8* %62, i32 %66, i32 %69, i8* %72, i8* %75)
  %77 = load %struct.student*, %struct.student** %1, align 8
  %78 = getelementptr inbounds %struct.student, %struct.student* %77, i32 0, i32 6
  %79 = load %struct.student*, %struct.student** %78, align 8
  store %struct.student* %79, %struct.student** %1, align 8
  br label %51

80:                                               ; preds = %51
  %81 = load %struct.student*, %struct.student** %1, align 8
  %82 = getelementptr inbounds %struct.student, %struct.student* %81, i32 0, i32 0
  %83 = getelementptr inbounds [10 x i8], [10 x i8]* %82, i64 0, i64 0
  %84 = load %struct.student*, %struct.student** %1, align 8
  %85 = getelementptr inbounds %struct.student, %struct.student* %84, i32 0, i32 1
  %86 = getelementptr inbounds [20 x i8], [20 x i8]* %85, i64 0, i64 0
  %87 = load %struct.student*, %struct.student** %1, align 8
  %88 = getelementptr inbounds %struct.student, %struct.student* %87, i32 0, i32 2
  %89 = load i8, i8* %88, align 2
  %90 = sext i8 %89 to i32
  %91 = load %struct.student*, %struct.student** %1, align 8
  %92 = getelementptr inbounds %struct.student, %struct.student* %91, i32 0, i32 3
  %93 = load i32, i32* %92, align 8
  %94 = load %struct.student*, %struct.student** %1, align 8
  %95 = getelementptr inbounds %struct.student, %struct.student* %94, i32 0, i32 4
  %96 = getelementptr inbounds [10 x i8], [10 x i8]* %95, i64 0, i64 0
  %97 = load %struct.student*, %struct.student** %1, align 8
  %98 = getelementptr inbounds %struct.student, %struct.student* %97, i32 0, i32 5
  %99 = getelementptr inbounds [15 x i8], [15 x i8]* %98, i64 0, i64 0
  %100 = call i32 (i8*, ...) @printf(i8* getelementptr inbounds ([19 x i8], [19 x i8]* @.str.3, i64 0, i64 0), i8* %83, i8* %86, i32 %90, i32 %93, i8* %96, i8* %99)
  ret void
}

; Function Attrs: nounwind
declare dso_local noalias i8* @malloc(i64) #1

declare dso_local i32 @__isoc99_scanf(i8*, ...) #2

; Function Attrs: nounwind readonly
declare dso_local i32 @strcmp(i8*, i8*) #3

declare dso_local i32 @printf(i8*, ...) #2


!llvm.module.flags = !{!0}
!llvm.ident = !{!1}

!0 = !{i32 1, !"wchar_size", i32 4}
!1 = !{!"clang version 10.0.0-4ubuntu1 "}
